target datalayout = "e-m:e-p270:32:32-p271:32:32-p272:64:64-i64:64-i128:128-f80:128-n8:16:32:64-S128"
target triple = "x86_64-unknown-linux-gnu"

%"class.v8::LocalBase.3" = type { %"class.v8::IndirectHandleBase" }
%"class.v8::IndirectHandleBase" = type { ptr }
%"class.v8::Local.2" = type { %"class.v8::LocalBase.3" }
%"class.v8::Local" = type { %"class.v8::LocalBase" }
%"class.v8::LocalBase" = type { %"class.v8::IndirectHandleBase" }
%"class.v8::HandleScope" = type { ptr, ptr, ptr }
%"class.v8::Maybe" = type { i8, i8 }
%"class.v8::LocalBase.512" = type { %"class.v8::IndirectHandleBase" }
%"class.v8::Local.511" = type { %"class.v8::LocalBase.512" }

; Function Attrs: mustprogress nounwind uwtable
define linkonce_odr dso_local void @_ZN2v85MaybeIbEC2Ev(ptr noundef nonnull align 1 dereferenceable(2) %this) unnamed_addr #4 comdat align 2 {
entry:
  %this.addr = alloca ptr, align 8
  store ptr %this, ptr %this.addr, align 8
  %this1 = load ptr, ptr %this.addr, align 8
  %has_value_ = getelementptr inbounds %"class.v8::Maybe", ptr %this1, i32 0, i32 0
  store i8 0, ptr %has_value_, align 1
  ret void
}

; Function Attrs: mustprogress nounwind uwtable
define linkonce_odr dso_local i16 @_ZN2v87NothingIbEENS_5MaybeIT_EEv() #4 comdat {
entry:
  %retval = alloca %"class.v8::Maybe", align 1
  call void @_ZN2v85MaybeIbEC2Ev(ptr noundef nonnull align 1 dereferenceable(2) %retval)
  %0 = load i16, ptr %retval, align 1
  ret i16 %0
}

; Function Attrs: mustprogress nounwind uwtable
define dso_local i16 @_ZN4node32InitializeMainContextForSnapshotEN2v85LocalINS0_7ContextEEE(ptr %context.coerce) #4 {
entry:
  %this.addr.i115 = alloca ptr, align 8
  %other.addr.i116 = alloca ptr, align 8
  %this.addr.i112 = alloca ptr, align 8
  %other.addr.i113 = alloca ptr, align 8
  %this.addr.i110 = alloca ptr, align 8
  %this.addr.i108 = alloca ptr, align 8
  %this.addr.i106 = alloca ptr, align 8
  %slot.addr.i105 = alloca ptr, align 8
  %slot.addr.i104 = alloca ptr, align 8
  %slot.addr.i103 = alloca ptr, align 8
  %this.addr.i99 = alloca ptr, align 8
  %this.addr.i95 = alloca ptr, align 8
  %this.addr.i92 = alloca ptr, align 8
  %this.addr.i.i86 = alloca ptr, align 8
  %location.addr.i.i87 = alloca ptr, align 8
  %this.addr.i88 = alloca ptr, align 8
  %location.addr.i89 = alloca ptr, align 8
  %this.addr.i.i = alloca ptr, align 8
  %location.addr.i.i = alloca ptr, align 8
  %this.addr.i84 = alloca ptr, align 8
  %location.addr.i = alloca ptr, align 8
  %this.addr.i81 = alloca ptr, align 8
  %other.addr.i82 = alloca ptr, align 8
  %this.addr.i79 = alloca ptr, align 8
  %other.addr.i = alloca ptr, align 8
  %retval.i77 = alloca %"class.v8::LocalBase.512", align 8
  %slot.addr.i78 = alloca ptr, align 8
  %retval.i75 = alloca %"class.v8::LocalBase.512", align 8
  %slot.addr.i76 = alloca ptr, align 8
  %retval.i71 = alloca %"class.v8::Local.511", align 8
  %slot.addr.i72 = alloca ptr, align 8
  %ref.tmp.i73 = alloca %"class.v8::LocalBase.512", align 8
  %retval.i69 = alloca %"class.v8::Local.511", align 8
  %slot.addr.i = alloca ptr, align 8
  %ref.tmp.i = alloca %"class.v8::LocalBase.512", align 8
  %isolate.addr.i62 = alloca ptr, align 8
  %index.addr.i63 = alloca i32, align 4
  %addr.i64 = alloca i64, align 8
  %isolate.addr.i61 = alloca ptr, align 8
  %index.addr.i = alloca i32, align 4
  %addr.i = alloca i64, align 8
  %isolate.addr.i60 = alloca ptr, align 8
  %isolate.addr.i59 = alloca ptr, align 8
  %retval.i54 = alloca %"class.v8::Local.511", align 8
  %isolate.addr.i55 = alloca ptr, align 8
  %slot.i56 = alloca ptr, align 8
  %retval.i = alloca %"class.v8::Local.511", align 8
  %isolate.addr.i = alloca ptr, align 8
  %slot.i = alloca ptr, align 8
  %that.i50 = alloca %"class.v8::Local.511", align 8
  %this.addr.i51 = alloca ptr, align 8
  %that.i = alloca %"class.v8::Local.511", align 8
  %this.addr.i49 = alloca ptr, align 8
  %this.addr.i47 = alloca ptr, align 8
  %this.addr.i44 = alloca ptr, align 8
  %this.addr.i41 = alloca ptr, align 8
  %this.addr.i = alloca ptr, align 8
  %retval = alloca %"class.v8::Maybe", align 1
  %context = alloca %"class.v8::Local", align 8
  %isolate = alloca ptr, align 8
  %handle_scope = alloca %"class.v8::HandleScope", align 8
  %agg.tmp = alloca %"class.v8::Local.2", align 8
  %agg.tmp5 = alloca %"class.v8::Local.511", align 8
  %agg.tmp17 = alloca %"class.v8::Local.2", align 8
  %agg.tmp18 = alloca %"class.v8::Local.511", align 8
  %ref.tmp = alloca %"class.v8::Maybe", align 1
  %agg.tmp29 = alloca %"class.v8::Local", align 8
  %cleanup.dest.slot = alloca i32, align 4
  %agg.tmp36 = alloca %"class.v8::Local", align 8
  %coerce.dive = getelementptr inbounds %"class.v8::Local", ptr %context, i32 0, i32 0
  %coerce.dive1 = getelementptr inbounds %"class.v8::LocalBase", ptr %coerce.dive, i32 0, i32 0
  %coerce.dive2 = getelementptr inbounds %"class.v8::IndirectHandleBase", ptr %coerce.dive1, i32 0, i32 0
  store ptr %context.coerce, ptr %coerce.dive2, align 8
  store ptr %context, ptr %this.addr.i44, align 8
  %this1.i45 = load ptr, ptr %this.addr.i44, align 8
  store ptr %this1.i45, ptr %this.addr.i92, align 8
  %this1.i93 = load ptr, ptr %this.addr.i92, align 8
  store ptr %this1.i93, ptr %this.addr.i110, align 8
  %this1.i111 = load ptr, ptr %this.addr.i110, align 8
  %0 = load ptr, ptr %this1.i111, align 8
  store ptr %0, ptr %slot.addr.i105, align 8
  %1 = load ptr, ptr %slot.addr.i105, align 8
  %call3 = call noundef ptr @_ZN2v87Context10GetIsolateEv(ptr noundef nonnull align 1 dereferenceable(1) %1)
  store ptr %call3, ptr %isolate, align 8
  %2 = load ptr, ptr %isolate, align 8
  call void @_ZN2v811HandleScopeC1EPNS_7IsolateE(ptr noundef nonnull align 8 dereferenceable(24) %handle_scope, ptr noundef %2)
  store ptr %context, ptr %this.addr.i41, align 8
  %this1.i42 = load ptr, ptr %this.addr.i41, align 8
  store ptr %this1.i42, ptr %this.addr.i95, align 8
  %this1.i96 = load ptr, ptr %this.addr.i95, align 8
  store ptr %this1.i96, ptr %this.addr.i108, align 8
  %this1.i109 = load ptr, ptr %this.addr.i108, align 8
  %3 = load ptr, ptr %this1.i109, align 8
  store ptr %3, ptr %slot.addr.i104, align 8
  %4 = load ptr, ptr %slot.addr.i104, align 8
  %5 = load ptr, ptr %isolate, align 8
  store ptr %5, ptr %isolate.addr.i55, align 8
  %6 = load ptr, ptr %isolate.addr.i55, align 8
  store ptr %6, ptr %isolate.addr.i59, align 8
  %7 = load ptr, ptr %isolate.addr.i55, align 8
  store ptr %7, ptr %isolate.addr.i61, align 8
  store i32 7, ptr %index.addr.i, align 4
  %8 = load ptr, ptr %isolate.addr.i61, align 8
  %9 = ptrtoint ptr %8 to i64
  %add.i = add i64 %9, 576
  %10 = load i32, ptr %index.addr.i, align 4
  %mul.i = mul nsw i32 %10, 8
  %conv.i = sext i32 %mul.i to i64
  %add1.i = add i64 %add.i, %conv.i
  store i64 %add1.i, ptr %addr.i, align 8
  %11 = load i64, ptr %addr.i, align 8
  %12 = inttoptr i64 %11 to ptr
  store ptr %12, ptr %slot.i56, align 8
  %13 = load ptr, ptr %slot.i56, align 8
  store ptr %13, ptr %slot.addr.i, align 8
  %14 = load ptr, ptr %slot.addr.i, align 8
  store ptr %14, ptr %slot.addr.i78, align 8
  %15 = load ptr, ptr %slot.addr.i78, align 8
  store ptr %retval.i77, ptr %this.addr.i84, align 8
  store ptr %15, ptr %location.addr.i, align 8
  %this1.i85 = load ptr, ptr %this.addr.i84, align 8
  %16 = load ptr, ptr %location.addr.i, align 8
  store ptr %this1.i85, ptr %this.addr.i.i, align 8
  store ptr %16, ptr %location.addr.i.i, align 8
  %this1.i.i = load ptr, ptr %this.addr.i.i, align 8
  %17 = load ptr, ptr %location.addr.i.i, align 8
  store ptr %17, ptr %this1.i.i, align 8
  %18 = load ptr, ptr %retval.i77, align 8
  store ptr %18, ptr %ref.tmp.i, align 8
  store ptr %retval.i69, ptr %this.addr.i81, align 8
  store ptr %ref.tmp.i, ptr %other.addr.i82, align 8
  %this1.i83 = load ptr, ptr %this.addr.i81, align 8
  %19 = load ptr, ptr %other.addr.i82, align 8
  call void @llvm.memcpy.p0.p0.i64(ptr align 8 %this1.i83, ptr align 8 %19, i64 8, i1 false)
  %20 = load ptr, ptr %retval.i69, align 8
  store ptr %20, ptr %retval.i54, align 8
  %21 = load ptr, ptr %retval.i54, align 8
  %coerce.dive7 = getelementptr inbounds %"class.v8::Local.511", ptr %agg.tmp5, i32 0, i32 0
  %coerce.dive8 = getelementptr inbounds %"class.v8::LocalBase.512", ptr %coerce.dive7, i32 0, i32 0
  %coerce.dive9 = getelementptr inbounds %"class.v8::IndirectHandleBase", ptr %coerce.dive8, i32 0, i32 0
  store ptr %21, ptr %coerce.dive9, align 8
  %coerce.dive10 = getelementptr inbounds %"class.v8::Local.511", ptr %agg.tmp5, i32 0, i32 0
  %coerce.dive11 = getelementptr inbounds %"class.v8::LocalBase.512", ptr %coerce.dive10, i32 0, i32 0
  %coerce.dive12 = getelementptr inbounds %"class.v8::IndirectHandleBase", ptr %coerce.dive11, i32 0, i32 0
  %22 = load ptr, ptr %coerce.dive12, align 8
  store ptr %22, ptr %that.i, align 8
  store ptr %agg.tmp, ptr %this.addr.i49, align 8
  %this3.i = load ptr, ptr %this.addr.i49, align 8
  store ptr %this3.i, ptr %this.addr.i115, align 8
  store ptr %that.i, ptr %other.addr.i116, align 8
  %this1.i117 = load ptr, ptr %this.addr.i115, align 8
  %23 = load ptr, ptr %other.addr.i116, align 8
  call void @llvm.memcpy.p0.p0.i64(ptr align 8 %this1.i117, ptr align 8 %23, i64 8, i1 false)
  %coerce.dive13 = getelementptr inbounds %"class.v8::Local.2", ptr %agg.tmp, i32 0, i32 0
  %coerce.dive14 = getelementptr inbounds %"class.v8::LocalBase.3", ptr %coerce.dive13, i32 0, i32 0
  %coerce.dive15 = getelementptr inbounds %"class.v8::IndirectHandleBase", ptr %coerce.dive14, i32 0, i32 0
  %24 = load ptr, ptr %coerce.dive15, align 8
  call void @_ZN2v87Context15SetEmbedderDataEiNS_5LocalINS_5ValueEEE(ptr noundef nonnull align 1 dereferenceable(1) %4, i32 noundef 34, ptr %24)
  store ptr %context, ptr %this.addr.i, align 8
  %this1.i = load ptr, ptr %this.addr.i, align 8
  store ptr %this1.i, ptr %this.addr.i99, align 8
  %this1.i100 = load ptr, ptr %this.addr.i99, align 8
  store ptr %this1.i100, ptr %this.addr.i106, align 8
  %this1.i107 = load ptr, ptr %this.addr.i106, align 8
  %25 = load ptr, ptr %this1.i107, align 8
  store ptr %25, ptr %slot.addr.i103, align 8
  %26 = load ptr, ptr %slot.addr.i103, align 8
  %27 = load ptr, ptr %isolate, align 8
  store ptr %27, ptr %isolate.addr.i, align 8
  %28 = load ptr, ptr %isolate.addr.i, align 8
  store ptr %28, ptr %isolate.addr.i60, align 8
  %29 = load ptr, ptr %isolate.addr.i, align 8
  store ptr %29, ptr %isolate.addr.i62, align 8
  store i32 7, ptr %index.addr.i63, align 4
  %30 = load ptr, ptr %isolate.addr.i62, align 8
  %31 = ptrtoint ptr %30 to i64
  %add.i65 = add i64 %31, 576
  %32 = load i32, ptr %index.addr.i63, align 4
  %mul.i66 = mul nsw i32 %32, 8
  %conv.i67 = sext i32 %mul.i66 to i64
  %add1.i68 = add i64 %add.i65, %conv.i67
  store i64 %add1.i68, ptr %addr.i64, align 8
  %33 = load i64, ptr %addr.i64, align 8
  %34 = inttoptr i64 %33 to ptr
  store ptr %34, ptr %slot.i, align 8
  %35 = load ptr, ptr %slot.i, align 8
  store ptr %35, ptr %slot.addr.i72, align 8
  %36 = load ptr, ptr %slot.addr.i72, align 8
  store ptr %36, ptr %slot.addr.i76, align 8
  %37 = load ptr, ptr %slot.addr.i76, align 8
  store ptr %retval.i75, ptr %this.addr.i88, align 8
  store ptr %37, ptr %location.addr.i89, align 8
  %this1.i90 = load ptr, ptr %this.addr.i88, align 8
  %38 = load ptr, ptr %location.addr.i89, align 8
  store ptr %this1.i90, ptr %this.addr.i.i86, align 8
  store ptr %38, ptr %location.addr.i.i87, align 8
  %this1.i.i91 = load ptr, ptr %this.addr.i.i86, align 8
  %39 = load ptr, ptr %location.addr.i.i87, align 8
  store ptr %39, ptr %this1.i.i91, align 8
  %40 = load ptr, ptr %retval.i75, align 8
  store ptr %40, ptr %ref.tmp.i73, align 8
  store ptr %retval.i71, ptr %this.addr.i79, align 8
  store ptr %ref.tmp.i73, ptr %other.addr.i, align 8
  %this1.i80 = load ptr, ptr %this.addr.i79, align 8
  %41 = load ptr, ptr %other.addr.i, align 8
  call void @llvm.memcpy.p0.p0.i64(ptr align 8 %this1.i80, ptr align 8 %41, i64 8, i1 false)
  %42 = load ptr, ptr %retval.i71, align 8
  store ptr %42, ptr %retval.i, align 8
  %43 = load ptr, ptr %retval.i, align 8
  %coerce.dive20 = getelementptr inbounds %"class.v8::Local.511", ptr %agg.tmp18, i32 0, i32 0
  %coerce.dive21 = getelementptr inbounds %"class.v8::LocalBase.512", ptr %coerce.dive20, i32 0, i32 0
  %coerce.dive22 = getelementptr inbounds %"class.v8::IndirectHandleBase", ptr %coerce.dive21, i32 0, i32 0
  store ptr %43, ptr %coerce.dive22, align 8
  %coerce.dive23 = getelementptr inbounds %"class.v8::Local.511", ptr %agg.tmp18, i32 0, i32 0
  %coerce.dive24 = getelementptr inbounds %"class.v8::LocalBase.512", ptr %coerce.dive23, i32 0, i32 0
  %coerce.dive25 = getelementptr inbounds %"class.v8::IndirectHandleBase", ptr %coerce.dive24, i32 0, i32 0
  %44 = load ptr, ptr %coerce.dive25, align 8
  store ptr %44, ptr %that.i50, align 8
  store ptr %agg.tmp17, ptr %this.addr.i51, align 8
  %this3.i52 = load ptr, ptr %this.addr.i51, align 8
  store ptr %this3.i52, ptr %this.addr.i112, align 8
  store ptr %that.i50, ptr %other.addr.i113, align 8
  %this1.i114 = load ptr, ptr %this.addr.i112, align 8
  %45 = load ptr, ptr %other.addr.i113, align 8
  call void @llvm.memcpy.p0.p0.i64(ptr align 8 %this1.i114, ptr align 8 %45, i64 8, i1 false)
  %coerce.dive26 = getelementptr inbounds %"class.v8::Local.2", ptr %agg.tmp17, i32 0, i32 0
  %coerce.dive27 = getelementptr inbounds %"class.v8::LocalBase.3", ptr %coerce.dive26, i32 0, i32 0
  %coerce.dive28 = getelementptr inbounds %"class.v8::IndirectHandleBase", ptr %coerce.dive27, i32 0, i32 0
  %46 = load ptr, ptr %coerce.dive28, align 8
  call void @_ZN2v87Context15SetEmbedderDataEiNS_5LocalINS_5ValueEEE(ptr noundef nonnull align 1 dereferenceable(1) %26, i32 noundef 36, ptr %46)
  call void @llvm.memcpy.p0.p0.i64(ptr align 8 %agg.tmp29, ptr align 8 %context, i64 8, i1 false)
  %coerce.dive30 = getelementptr inbounds %"class.v8::Local", ptr %agg.tmp29, i32 0, i32 0
  %coerce.dive31 = getelementptr inbounds %"class.v8::LocalBase", ptr %coerce.dive30, i32 0, i32 0
  %coerce.dive32 = getelementptr inbounds %"class.v8::IndirectHandleBase", ptr %coerce.dive31, i32 0, i32 0
  %47 = load ptr, ptr %coerce.dive32, align 8
  %call33 = call i16 @_ZN4node32InitializeBaseContextForSnapshotEN2v85LocalINS0_7ContextEEE(ptr %47)
  store i16 %call33, ptr %ref.tmp, align 1
  store ptr %ref.tmp, ptr %this.addr.i47, align 8
  %this1.i48 = load ptr, ptr %this.addr.i47, align 8
  %48 = load i8, ptr %this1.i48, align 1
  %tobool.i = trunc i8 %48 to i1
  %lnot.i = xor i1 %tobool.i, true
  br i1 %lnot.i, label %if.then, label %if.end

if.then:                                          ; preds = %entry
  %call35 = call i16 @_ZN2v87NothingIbEENS_5MaybeIT_EEv()
  store i16 %call35, ptr %retval, align 1
  store i32 1, ptr %cleanup.dest.slot, align 4
  br label %cleanup

if.end:                                           ; preds = %entry
  call void @llvm.memcpy.p0.p0.i64(ptr align 8 %agg.tmp36, ptr align 8 %context, i64 8, i1 false)
  %coerce.dive37 = getelementptr inbounds %"class.v8::Local", ptr %agg.tmp36, i32 0, i32 0
  %coerce.dive38 = getelementptr inbounds %"class.v8::LocalBase", ptr %coerce.dive37, i32 0, i32 0
  %coerce.dive39 = getelementptr inbounds %"class.v8::IndirectHandleBase", ptr %coerce.dive38, i32 0, i32 0
  %49 = load ptr, ptr %coerce.dive39, align 8
  %call40 = call i16 @_ZN4node21InitializePrimordialsEN2v85LocalINS0_7ContextEEE(ptr %49)
  store i16 %call40, ptr %retval, align 1
  store i32 1, ptr %cleanup.dest.slot, align 4
  br label %cleanup

cleanup:                                          ; preds = %if.end, %if.then
  call void @_ZN2v811HandleScopeD1Ev(ptr noundef nonnull align 8 dereferenceable(24) %handle_scope) #3
  %50 = load i16, ptr %retval, align 1
  ret i16 %50
}