; Function Attrs: mustprogress nounwind uwtable
define dso_local noundef i16 @_ZN4node32InitializeMainContextForSnapshotEN2v85LocalINS0_7ContextEEE(ptr nonnull %context.coerce) local_unnamed_addr #3 {
entry:
  %handle_scope = alloca %"class.v8::HandleScope", align 8
  %call3 = tail call noundef ptr @_ZN2v87Context10GetIsolateEv(ptr noundef nonnull align 1 dereferenceable(1) %context.coerce) #12
  call void @_ZN2v811HandleScopeC1EPNS_7IsolateE(ptr noundef nonnull align 8 dereferenceable(24) %handle_scope, ptr noundef %call3) #12
  %0 = ptrtoint ptr %call3 to i64
  %add1.i = add i64 %0, 632
  %1 = inttoptr i64 %add1.i to ptr
  call void @_ZN2v87Context15SetEmbedderDataEiNS_5LocalINS_5ValueEEE(ptr noundef nonnull align 1 dereferenceable(1) %context.coerce, i32 noundef 34, ptr %1) #12
  call void @_ZN2v87Context15SetEmbedderDataEiNS_5LocalINS_5ValueEEE(ptr noundef nonnull align 1 dereferenceable(1) %context.coerce, i32 noundef 36, ptr %1) #12
  %call33 = call i16 @_ZN4node32InitializeBaseContextForSnapshotEN2v85LocalINS0_7ContextEEE(ptr nonnull %context.coerce)
  %2 = and i16 %call33, 1
  %tobool.i.not = icmp eq i16 %2, 0
  br i1 %tobool.i.not, label %cleanup, label %if.end

if.end:                                           ; preds = %entry
  %call40 = call i16 @_ZN4node21InitializePrimordialsEN2v85LocalINS0_7ContextEEE(ptr nonnull %context.coerce)
  br label %cleanup

cleanup:                                          ; preds = %entry, %if.end
  %retval.sroa.0.0 = phi i16 [ %call40, %if.end ], [ 0, %entry ]
  call void @_ZN2v811HandleScopeD1Ev(ptr noundef nonnull align 8 dereferenceable(24) %handle_scope) #12
  ret i16 %retval.sroa.0.0
}